; Function Attrs: nofree norecurse nosync nounwind memory(argmem: readwrite) uwtable
define dso_local void @bit_clear_all(ptr noundef captures(none) %0) #2 {
  %2 = getelementptr inbounds nuw i8, ptr %0, i64 8
  %3 = load i64, ptr %2, align 8
  %invariant.gep.i = getelementptr i8, ptr %0, i64 16
  %.not1825.i = icmp slt i64 %3, 1
  br i1 %.not1825.i, label %bit_nclear.exit, label %.lr.ph27.i

.lr.ph27.i:                                       ; preds = %1, %.critedge.i
  %.026.i.in = phi i64 [ %.026.i, %.critedge.i ], [ %3, %1 ]
  %4 = and i64 %.026.i.in, 7
  %.not = icmp eq i64 %4, 0
  br i1 %.not, label %.critedge2.i, label %.critedge.i

.critedge.i:                                      ; preds = %.lr.ph27.i
  %.026.i = add nsw i64 %.026.i.in, -1
  %5 = and i64 %.026.i, 63
  %6 = shl nuw i64 1, %5
  %7 = xor i64 %6, -1
  %8 = ashr i64 %.026.i, 6
  %gep24.i = getelementptr i64, ptr %invariant.gep.i, i64 %8
  %9 = load i64, ptr %gep24.i, align 8
  %10 = and i64 %9, %7
  store i64 %10, ptr %gep24.i, align 8
  %.not18.not.i = icmp sgt i64 %.026.i.in, 1
  br i1 %.not18.not.i, label %.lr.ph27.i, label %bit_nclear.exit, !llvm.loop !11

.critedge2.i:                                     ; preds = %.lr.ph27.i
  %11 = lshr exact i64 %.026.i.in, 3
  tail call void @llvm.memset.p0.i64(ptr noundef nonnull align 1 dereferenceable(1) %invariant.gep.i, i8 0, i64 %11, i1 false)
  br label %bit_nclear.exit

bit_nclear.exit:                                  ; preds = %.critedge.i, %1, %.critedge2.i
  ret void
}